target datalayout = "e-m:e-p270:32:32-p271:32:32-p272:64:64-i64:64-i128:128-f80:128-n8:16:32:64-S128"
target triple = "x86_64-pc-linux-gnu"

%struct.Wlc_Ntk_t_ = type { ptr, ptr, %struct.Vec_Int_t_, %struct.Vec_Int_t_, %struct.Vec_Int_t_, %struct.Vec_Int_t_, %struct.Vec_Int_t_, %struct.Vec_Int_t_, ptr, ptr, ptr, [60 x i32], [60 x i32], i32, i32, i32, i32, i32, ptr, i32, i32, ptr, ptr, ptr, ptr, ptr, %struct.Vec_Int_t_, %struct.Vec_Int_t_, i32, %struct.Vec_Int_t_, %struct.Vec_Int_t_, %struct.Vec_Int_t_, %struct.Vec_Int_t_, %struct.Vec_Int_t_, %struct.Vec_Int_t_ }
%struct.Vec_Int_t_ = type { i32, i32, ptr }
%struct.Wlc_Obj_t_ = type { i16, i32, i32, i32, %union.anon }
%union.anon = type { [1 x ptr] }

; Function Attrs: nounwind uwtable
define internal ptr @Vec_IntArray(ptr noundef %0) #0 {
  %2 = alloca ptr, align 8
  store ptr %0, ptr %2, align 8
  %3 = load ptr, ptr %2, align 8
  %4 = getelementptr inbounds %struct.Vec_Int_t_, ptr %3, i32 0, i32 2
  %5 = load ptr, ptr %4, align 8
  ret ptr %5
}

; Function Attrs: nounwind uwtable
define internal ptr @Wlc_ObjFanins(ptr noundef %0) #0 {
  %2 = alloca ptr, align 8
  store ptr %0, ptr %2, align 8
  %3 = load ptr, ptr %2, align 8
  %4 = call i32 @Wlc_ObjHasArray(ptr noundef %3)
  %5 = icmp ne i32 %4, 0
  br i1 %5, label %6, label %11

6:                                                ; preds = %1
  %7 = load ptr, ptr %2, align 8
  %8 = getelementptr inbounds %struct.Wlc_Obj_t_, ptr %7, i32 0, i32 4
  %9 = getelementptr inbounds [1 x ptr], ptr %8, i64 0, i64 0
  %10 = load ptr, ptr %9, align 8
  br label %15

11:                                               ; preds = %1
  %12 = load ptr, ptr %2, align 8
  %13 = getelementptr inbounds %struct.Wlc_Obj_t_, ptr %12, i32 0, i32 4
  %14 = getelementptr inbounds [2 x i32], ptr %13, i64 0, i64 0
  br label %15

15:                                               ; preds = %11, %6
  %16 = phi ptr [ %10, %6 ], [ %14, %11 ]
  ret ptr %16
}

; Function Attrs: nounwind uwtable
define internal i32 @Wlc_ObjHasArray(ptr noundef %0) #0 {
  %2 = alloca ptr, align 8
  store ptr %0, ptr %2, align 8
  %3 = load ptr, ptr %2, align 8
  %4 = getelementptr inbounds %struct.Wlc_Obj_t_, ptr %3, i32 0, i32 1
  %5 = load i32, ptr %4, align 4
  %6 = icmp ugt i32 %5, 2
  br i1 %6, label %19, label %7

7:                                                ; preds = %1
  %8 = load ptr, ptr %2, align 8
  %9 = load i16, ptr %8, align 8
  %10 = and i16 %9, 63
  %11 = zext i16 %10 to i32
  %12 = icmp eq i32 %11, 6
  br i1 %12, label %19, label %13

13:                                               ; preds = %7
  %14 = load ptr, ptr %2, align 8
  %15 = load i16, ptr %14, align 8
  %16 = and i16 %15, 63
  %17 = zext i16 %16 to i32
  %18 = icmp eq i32 %17, 22
  br label %19

19:                                               ; preds = %13, %7, %1
  %20 = phi i1 [ true, %7 ], [ true, %1 ], [ %18, %13 ]
  %21 = zext i1 %20 to i32
  ret i32 %21
}

; Function Attrs: nounwind uwtable
define internal i32 @Vec_IntSize(ptr noundef %0) #0 {
  %2 = alloca ptr, align 8
  store ptr %0, ptr %2, align 8
  %3 = load ptr, ptr %2, align 8
  %4 = getelementptr inbounds %struct.Vec_Int_t_, ptr %3, i32 0, i32 1
  %5 = load i32, ptr %4, align 4
  ret i32 %5
}

; Function Attrs: nounwind uwtable
define void @Wlc_ObjAddFanins(ptr noundef %0, ptr noundef %1, ptr noundef %2) #0 {
  %4 = alloca ptr, align 8
  %5 = alloca ptr, align 8
  %6 = alloca ptr, align 8
  store ptr %0, ptr %4, align 8
  store ptr %1, ptr %5, align 8
  store ptr %2, ptr %6, align 8
  %7 = load ptr, ptr %6, align 8
  %8 = call i32 @Vec_IntSize(ptr noundef %7)
  %9 = load ptr, ptr %5, align 8
  %10 = getelementptr inbounds %struct.Wlc_Obj_t_, ptr %9, i32 0, i32 1
  store i32 %8, ptr %10, align 4
  %11 = load ptr, ptr %5, align 8
  %12 = load i16, ptr %11, align 8
  %13 = and i16 %12, 63
  %14 = zext i16 %13 to i32
  %15 = icmp eq i32 %14, 6
  br i1 %15, label %16, label %19

16:                                               ; preds = %3
  %17 = load ptr, ptr %5, align 8
  %18 = getelementptr inbounds %struct.Wlc_Obj_t_, ptr %17, i32 0, i32 1
  store i32 0, ptr %18, align 4
  br label %35

19:                                               ; preds = %3
  %20 = load ptr, ptr %5, align 8
  %21 = load i16, ptr %20, align 8
  %22 = and i16 %21, 63
  %23 = zext i16 %22 to i32
  %24 = icmp eq i32 %23, 22
  br i1 %24, label %31, label %25

25:                                               ; preds = %19
  %26 = load ptr, ptr %5, align 8
  %27 = load i16, ptr %26, align 8
  %28 = and i16 %27, 63
  %29 = zext i16 %28 to i32
  %30 = icmp eq i32 %29, 53
  br i1 %30, label %31, label %34

31:                                               ; preds = %25, %19
  %32 = load ptr, ptr %5, align 8
  %33 = getelementptr inbounds %struct.Wlc_Obj_t_, ptr %32, i32 0, i32 1
  store i32 1, ptr %33, align 4
  br label %34

34:                                               ; preds = %31, %25
  br label %35

35:                                               ; preds = %34, %16
  %36 = load ptr, ptr %5, align 8
  %37 = call i32 @Wlc_ObjHasArray(ptr noundef %36)
  %38 = icmp ne i32 %37, 0
  br i1 %38, label %39, label %52

39:                                               ; preds = %35
  %40 = load ptr, ptr %4, align 8
  %41 = getelementptr inbounds %struct.Wlc_Ntk_t_, ptr %40, i32 0, i32 21
  %42 = load ptr, ptr %41, align 8
  %43 = load ptr, ptr %6, align 8
  %44 = call i32 @Vec_IntSize(ptr noundef %43)
  %45 = sext i32 %44 to i64
  %46 = mul i64 %45, 4
  %47 = trunc i64 %46 to i32
  %48 = call ptr @Mem_FlexEntryFetch(ptr noundef %42, i32 noundef %47)
  %49 = load ptr, ptr %5, align 8
  %50 = getelementptr inbounds %struct.Wlc_Obj_t_, ptr %49, i32 0, i32 4
  %51 = getelementptr inbounds [1 x ptr], ptr %50, i64 0, i64 0
  store ptr %48, ptr %51, align 8
  br label %52

52:                                               ; preds = %39, %35
  %53 = load ptr, ptr %5, align 8
  %54 = call ptr @Wlc_ObjFanins(ptr noundef %53)
  %55 = load ptr, ptr %6, align 8
  %56 = call ptr @Vec_IntArray(ptr noundef %55)
  %57 = load ptr, ptr %6, align 8
  %58 = call i32 @Vec_IntSize(ptr noundef %57)
  %59 = sext i32 %58 to i64
  %60 = mul i64 4, %59
  call void @llvm.memcpy.p0.p0.i64(ptr align 4 %54, ptr align 4 %56, i64 %60, i1 false)
  ret void
}

; Function Attrs: nounwind uwtable
define internal ptr @Wlc_NtkObj(ptr noundef %0, i32 noundef %1) #0 {
  %3 = alloca ptr, align 8
  %4 = alloca i32, align 4
  store ptr %0, ptr %3, align 8
  store i32 %1, ptr %4, align 4
  %5 = load ptr, ptr %3, align 8
  %6 = getelementptr inbounds %struct.Wlc_Ntk_t_, ptr %5, i32 0, i32 18
  %7 = load ptr, ptr %6, align 8
  %8 = load i32, ptr %4, align 4
  %9 = sext i32 %8 to i64
  %10 = getelementptr inbounds %struct.Wlc_Obj_t_, ptr %7, i64 %9
  ret ptr %10
}

; Function Attrs: nounwind uwtable
define i32 @Wlc_ObjCreate(ptr noundef %0, i32 noundef %1, i32 noundef %2, i32 noundef %3, i32 noundef %4, ptr noundef %5) #0 {
  %7 = alloca ptr, align 8
  %8 = alloca i32, align 4
  %9 = alloca i32, align 4
  %10 = alloca i32, align 4
  %11 = alloca i32, align 4
  %12 = alloca ptr, align 8
  %13 = alloca i32, align 4
  store ptr %0, ptr %7, align 8
  store i32 %1, ptr %8, align 4
  store i32 %2, ptr %9, align 4
  store i32 %3, ptr %10, align 4
  store i32 %4, ptr %11, align 4
  store ptr %5, ptr %12, align 8
  %14 = load ptr, ptr %7, align 8
  %15 = load i32, ptr %8, align 4
  %16 = load i32, ptr %9, align 4
  %17 = load i32, ptr %10, align 4
  %18 = load i32, ptr %11, align 4
  %19 = call i32 @Wlc_ObjAlloc(ptr noundef %14, i32 noundef %15, i32 noundef %16, i32 noundef %17, i32 noundef %18)
  store i32 %19, ptr %13, align 4
  %20 = load ptr, ptr %7, align 8
  %21 = load ptr, ptr %7, align 8
  %22 = load i32, ptr %13, align 4
  %23 = call ptr @Wlc_NtkObj(ptr noundef %21, i32 noundef %22)
  %24 = load ptr, ptr %12, align 8
  call void @Wlc_ObjAddFanins(ptr noundef %20, ptr noundef %23, ptr noundef %24)
  %25 = load i32, ptr %13, align 4
  ret i32 %25
}