; Function Attrs: nounwind uwtable
define i32 @Wlc_ObjCreate(ptr noundef captures(none) %0, i32 noundef %1, i32 noundef %2, i32 noundef %3, i32 noundef %4, ptr noundef readonly captures(none) %5) local_unnamed_addr #3 {
  %7 = tail call i32 @Wlc_ObjAlloc(ptr noundef %0, i32 noundef %1, i32 noundef %2, i32 noundef %3, i32 noundef %4)
  %8 = getelementptr i8, ptr %0, i64 640
  %.val = load ptr, ptr %8, align 8
  %9 = sext i32 %7 to i64
  %10 = getelementptr inbounds %struct.Wlc_Obj_t_, ptr %.val, i64 %9
  %11 = getelementptr i8, ptr %5, i64 4
  %.val15.i = load i32, ptr %11, align 4
  %.val15.fr.i = freeze i32 %.val15.i
  %12 = getelementptr inbounds nuw i8, ptr %10, i64 4
  store i32 %.val15.fr.i, ptr %12, align 4
  %13 = load i16, ptr %10, align 8
  %14 = and i16 %13, 63
  switch i16 %14, label %15 [
    i16 6, label %.thread.thread.i
    i16 22, label %.thread.thread18.i
    i16 53, label %.thread.thread18.i
  ]

.thread.thread.i:                                 ; preds = %6
  store i32 0, ptr %12, align 4
  br label %17

.thread.thread18.i:                               ; preds = %6, %6
  store i32 1, ptr %12, align 4
  %.not.old.i = icmp eq i16 %14, 22
  br i1 %.not.old.i, label %17, label %.thread.i

15:                                               ; preds = %6
  %16 = icmp ugt i32 %.val15.fr.i, 2
  br i1 %16, label %17, label %switch.early.test.i

switch.early.test.i:                              ; preds = %15
  switch i16 %14, label %.thread.i [
    i16 22, label %17
    i16 6, label %17
  ]

17:                                               ; preds = %switch.early.test.i, %switch.early.test.i, %15, %.thread.thread18.i, %.thread.thread.i
  %18 = getelementptr inbounds nuw i8, ptr %0, i64 656
  %19 = load ptr, ptr %18, align 8
  %.val14.i = load i32, ptr %11, align 4
  %20 = shl i32 %.val14.i, 2
  %21 = tail call ptr @Mem_FlexEntryFetch(ptr noundef %19, i32 noundef %20) #25
  %22 = getelementptr inbounds nuw i8, ptr %10, i64 16
  store ptr %21, ptr %22, align 8
  %.pre.i = load i32, ptr %12, align 4
  %23 = icmp ugt i32 %.pre.i, 2
  br i1 %23, label %Wlc_ObjHasArray.exit.thread.i.i, label %..thread.i_crit_edge

..thread.i_crit_edge:                             ; preds = %17
  %.pre = load i16, ptr %10, align 8
  %.pre9 = and i16 %.pre, 63
  br label %.thread.i

.thread.i:                                        ; preds = %..thread.i_crit_edge, %switch.early.test.i, %.thread.thread18.i
  %.pre-phi = phi i16 [ %.pre9, %..thread.i_crit_edge ], [ %14, %switch.early.test.i ], [ %14, %.thread.thread18.i ]
  switch i16 %.pre-phi, label %26 [
    i16 6, label %Wlc_ObjHasArray.exit.thread.i.i
    i16 22, label %Wlc_ObjHasArray.exit.thread.i.i
  ]

Wlc_ObjHasArray.exit.thread.i.i:                  ; preds = %.thread.i, %.thread.i, %17
  %24 = getelementptr inbounds nuw i8, ptr %10, i64 16
  %25 = load ptr, ptr %24, align 8
  br label %Wlc_ObjAddFanins.exit

26:                                               ; preds = %.thread.i
  %27 = getelementptr inbounds nuw i8, ptr %10, i64 16
  br label %Wlc_ObjAddFanins.exit

Wlc_ObjAddFanins.exit:                            ; preds = %Wlc_ObjHasArray.exit.thread.i.i, %26
  %28 = phi ptr [ %25, %Wlc_ObjHasArray.exit.thread.i.i ], [ %27, %26 ]
  %29 = getelementptr i8, ptr %5, i64 8
  %.val16.i = load ptr, ptr %29, align 8
  %.val.i = load i32, ptr %11, align 4
  %30 = sext i32 %.val.i to i64
  %31 = shl nsw i64 %30, 2
  tail call void @llvm.memcpy.p0.p0.i64(ptr align 4 %28, ptr align 4 %.val16.i, i64 %31, i1 false)
  ret i32 %7
}